; Function Attrs: nounwind uwtable
define internal fastcc noalias nonnull ptr @_init_l_Lean_addTrace___at_Lean_Compiler_LCNF_Decl_findJoinPoints___spec__2___closed__3() unnamed_addr #1 {
  %1 = load ptr, ptr @l_Lean_addTrace___at_Lean_Compiler_LCNF_Decl_findJoinPoints___spec__2___closed__2, align 8, !tbaa !4
  tail call void @lean_inc_heartbeat() #5
  %2 = tail call noalias ptr @mi_malloc_small(i64 noundef 80) #5
  %3 = icmp eq ptr %2, null
  br i1 %3, label %4, label %lean_alloc_ctor.exit

4:                                                ; preds = %0
  tail call void @lean_internal_panic_out_of_memory() #6
  unreachable

lean_alloc_ctor.exit:                             ; preds = %0
  %5 = getelementptr inbounds nuw i8, ptr %2, i64 4
  store i32 1, ptr %2, align 4, !tbaa !8
  store i32 589904, ptr %5, align 4
  %6 = getelementptr inbounds nuw i8, ptr %2, i64 8
  store ptr inttoptr (i64 1 to ptr), ptr %6, align 8, !tbaa !4
  %7 = getelementptr inbounds nuw i8, ptr %2, i64 16
  store ptr inttoptr (i64 1 to ptr), ptr %7, align 8, !tbaa !4
  %8 = getelementptr inbounds nuw i8, ptr %2, i64 24
  store ptr inttoptr (i64 1 to ptr), ptr %8, align 8, !tbaa !4
  %9 = getelementptr inbounds nuw i8, ptr %2, i64 32
  store ptr %1, ptr %9, align 8, !tbaa !4
  %10 = getelementptr inbounds nuw i8, ptr %2, i64 40
  store ptr %1, ptr %10, align 8, !tbaa !4
  %11 = getelementptr inbounds nuw i8, ptr %2, i64 48
  store ptr %1, ptr %11, align 8, !tbaa !4
  %12 = getelementptr inbounds nuw i8, ptr %2, i64 56
  store ptr %1, ptr %12, align 8, !tbaa !4
  %13 = getelementptr inbounds nuw i8, ptr %2, i64 64
  store ptr %1, ptr %13, align 8, !tbaa !4
  %14 = getelementptr inbounds nuw i8, ptr %2, i64 72
  store ptr %1, ptr %14, align 8, !tbaa !4
  ret ptr %2
}